; Function Attrs: mustprogress uwtable
define internal void @_ZNK7V3Sched12_GLOBAL__N_114SchedVarVertex8dotColorB5cxx11Ev(ptr dead_on_unwind noalias writable sret(%"class.std::__cxx11::basic_string") align 8 %0, ptr nocapture noundef nonnull readonly align 8 dereferenceable(88) %1) unnamed_addr #3 align 2 personality ptr @__gxx_personality_v0 {
  %3 = alloca %"class.std::allocator.0", align 1
  %4 = getelementptr inbounds i8, ptr %1, i64 80
  %5 = load ptr, ptr %4, align 8
  %6 = getelementptr inbounds i8, ptr %5, i64 160
  %7 = load ptr, ptr %6, align 8
  %8 = getelementptr inbounds i8, ptr %7, i64 184
  %9 = load ptr, ptr %8, align 8
  %10 = icmp eq ptr %9, null
  br i1 %10, label %11, label %_ZNK6AstVar11isNonOutputEv.exit

11:                                               ; preds = %2
  %12 = getelementptr inbounds i8, ptr %5, i64 168
  %13 = load ptr, ptr %12, align 8
  %14 = getelementptr inbounds i8, ptr %13, i64 249
  %15 = load i8, ptr %14, align 1
  %switch.tableidx = add i8 %15, -1
  %16 = icmp ult i8 %switch.tableidx, 5
  br i1 %16, label %switch.lookup, label %_ZNK6AstVar11isNonOutputEv.exit

switch.lookup:                                    ; preds = %11
  %17 = zext nneg i8 %switch.tableidx to i64
  %switch.gep = getelementptr inbounds [5 x ptr], ptr @switch.table._ZNK7V3Sched12_GLOBAL__N_114SchedVarVertex8dotColorB5cxx11Ev, i64 0, i64 %17
  %switch.load = load ptr, ptr %switch.gep, align 8
  br label %_ZNK6AstVar11isNonOutputEv.exit

_ZNK6AstVar11isNonOutputEv.exit:                  ; preds = %switch.lookup, %11, %2
  %18 = phi ptr [ @.str.19, %11 ], [ @.str.19, %2 ], [ %switch.load, %switch.lookup ]
  call void @_ZNSaIcEC1Ev(ptr noundef nonnull align 1 dereferenceable(1) %3) #24
  %19 = invoke noundef ptr @_ZNSt7__cxx1112basic_stringIcSt11char_traitsIcESaIcEE13_M_local_dataEv(ptr noundef nonnull align 8 dereferenceable(32) %0)
          to label %.noexc unwind label %23

.noexc:                                           ; preds = %_ZNK6AstVar11isNonOutputEv.exit
  invoke void @_ZNSt7__cxx1112basic_stringIcSt11char_traitsIcESaIcEE12_Alloc_hiderC1EPcRKS3_(ptr noundef nonnull align 8 dereferenceable(8) %0, ptr noundef %19, ptr noundef nonnull align 1 dereferenceable(1) %3)
          to label %.noexc2 unwind label %23

.noexc2:                                          ; preds = %.noexc
  %20 = getelementptr inbounds i8, ptr %18, i64 5
  invoke void @_ZNSt7__cxx1112basic_stringIcSt11char_traitsIcESaIcEE12_M_constructIPKcEEvT_S8_St20forward_iterator_tag(ptr noundef nonnull align 8 dereferenceable(32) %0, ptr noundef nonnull %18, ptr noundef nonnull %20)
          to label %_ZNSt7__cxx1112basic_stringIcSt11char_traitsIcESaIcEEC2IS3_EEPKcRKS3_.exit unwind label %21

21:                                               ; preds = %.noexc2
  %22 = landingpad { ptr, i32 }
          cleanup
  call void @_ZNSaIcED2Ev(ptr noundef nonnull align 1 dereferenceable(1) %0) #24
  br label %.body

_ZNSt7__cxx1112basic_stringIcSt11char_traitsIcESaIcEEC2IS3_EEPKcRKS3_.exit: ; preds = %.noexc2
  call void @_ZNSaIcED1Ev(ptr noundef nonnull align 1 dereferenceable(1) %3) #24
  ret void

23:                                               ; preds = %.noexc, %_ZNK6AstVar11isNonOutputEv.exit
  %24 = landingpad { ptr, i32 }
          cleanup
  br label %.body

.body:                                            ; preds = %21, %23
  %eh.lpad-body = phi { ptr, i32 } [ %24, %23 ], [ %22, %21 ]
  call void @_ZNSaIcED1Ev(ptr noundef nonnull align 1 dereferenceable(1) %3) #24
  resume { ptr, i32 } %eh.lpad-body
}